target datalayout = "e-m:e-p270:32:32-p271:32:32-p272:64:64-i64:64-i128:128-f80:128-n8:16:32:64-S128"
target triple = "x86_64-pc-linux-gnu"

%struct.sockaddr_storage = type { i16, [118 x i8], i64 }
%struct.AVFormatContext = type { ptr, ptr, ptr, ptr, ptr, i32, i32, ptr, i32, ptr, i32, ptr, ptr, i64, i64, i64, i32, i32, i32, i64, i64, ptr, i32, i32, ptr, i32, i32, i32, i32, ptr, i64, i32, i32, %struct.AVIOInterruptCB, i32, i32, i32, i32, i64, i32, i32, i32, i32, i32, i32, i32, i32, i32, i32, i32, i32, i64, i32, i32, i32, i32, i32, ptr, ptr, ptr, ptr, i32, ptr, ptr, ptr, ptr, i32, ptr, ptr, i64, ptr, ptr, ptr, i64 }
%struct.AVIOInterruptCB = type { ptr, ptr }
%struct.RTSPState = type { ptr, ptr, i32, ptr, i32, i64, i32, [512 x i8], i32, i64, i32, i32, i32, [64 x i8], [128 x i8], %struct.HTTPAuthState, [2048 x i8], ptr, i32, ptr, ptr, [1024 x i8], ptr, i64, [4096 x i8], ptr, i32, i32, ptr, i32, i32, ptr, i32, i64, ptr, i32, i32, i32, i32, i32, i32, i32, i32, i32, i32, i64, i32, ptr, [4 x i8], i32, i32, ptr }
%struct.HTTPAuthState = type { i32, [200 x i8], %struct.DigestParams, i32 }
%struct.DigestParams = type { [300 x i8], [10 x i8], [30 x i8], [300 x i8], [10 x i8], i32 }
%struct.RTSPStream = type { ptr, ptr, i32, i32, i32, [4096 x i8], i32, %struct.sockaddr_storage, i32, ptr, i32, ptr, i32, i32, ptr, ptr, i32, i32, [40 x i8], [100 x i8] }

; Function Attrs: nounwind uwtable
define void @ff_rtsp_undo_setup(ptr noundef %0, i32 noundef %1) #0 {
  %3 = alloca ptr, align 8
  %4 = alloca i32, align 4
  %5 = alloca ptr, align 8
  %6 = alloca i32, align 4
  %7 = alloca ptr, align 8
  %8 = alloca i32, align 4
  %9 = alloca ptr, align 8
  store ptr %0, ptr %3, align 8, !tbaa !15
  store i32 %1, ptr %4, align 4, !tbaa !12
  call void @llvm.lifetime.start.p0(i64 8, ptr %5) #13
  %10 = load ptr, ptr %3, align 8, !tbaa !15
  %11 = getelementptr inbounds nuw %struct.AVFormatContext, ptr %10, i32 0, i32 3
  %12 = load ptr, ptr %11, align 8, !tbaa !33
  store ptr %12, ptr %5, align 8, !tbaa !46
  call void @llvm.lifetime.start.p0(i64 4, ptr %6) #13
  store i32 0, ptr %6, align 4, !tbaa !12
  br label %13

13:                                               ; preds = %101, %2
  %14 = load i32, ptr %6, align 4, !tbaa !12
  %15 = load ptr, ptr %5, align 8, !tbaa !46
  %16 = getelementptr inbounds nuw %struct.RTSPState, ptr %15, i32 0, i32 2
  %17 = load i32, ptr %16, align 8, !tbaa !62
  %18 = icmp slt i32 %14, %17
  br i1 %18, label %19, label %104

19:                                               ; preds = %13
  call void @llvm.lifetime.start.p0(i64 8, ptr %7) #13
  %20 = load ptr, ptr %5, align 8, !tbaa !46
  %21 = getelementptr inbounds nuw %struct.RTSPState, ptr %20, i32 0, i32 3
  %22 = load ptr, ptr %21, align 8, !tbaa !54
  %23 = load i32, ptr %6, align 4, !tbaa !12
  %24 = sext i32 %23 to i64
  %25 = getelementptr inbounds ptr, ptr %22, i64 %24
  %26 = load ptr, ptr %25, align 8, !tbaa !63
  store ptr %26, ptr %7, align 8, !tbaa !63
  %27 = load ptr, ptr %7, align 8, !tbaa !63
  %28 = icmp ne ptr %27, null
  br i1 %28, label %30, label %29

29:                                               ; preds = %19
  store i32 4, ptr %8, align 4
  br label %98

30:                                               ; preds = %19
  %31 = load ptr, ptr %7, align 8, !tbaa !63
  %32 = getelementptr inbounds nuw %struct.RTSPStream, ptr %31, i32 0, i32 1
  %33 = load ptr, ptr %32, align 8, !tbaa !112
  %34 = icmp ne ptr %33, null
  br i1 %34, label %35, label %92

35:                                               ; preds = %30
  %36 = load ptr, ptr %3, align 8, !tbaa !15
  %37 = getelementptr inbounds nuw %struct.AVFormatContext, ptr %36, i32 0, i32 2
  %38 = load ptr, ptr %37, align 8, !tbaa !113
  %39 = icmp ne ptr %38, null
  br i1 %39, label %40, label %71

40:                                               ; preds = %35
  call void @llvm.lifetime.start.p0(i64 8, ptr %9) #13
  %41 = load ptr, ptr %7, align 8, !tbaa !63
  %42 = getelementptr inbounds nuw %struct.RTSPStream, ptr %41, i32 0, i32 1
  %43 = load ptr, ptr %42, align 8, !tbaa !112
  store ptr %43, ptr %9, align 8, !tbaa !15
  %44 = load ptr, ptr %9, align 8, !tbaa !15
  %45 = call i32 @av_write_trailer(ptr noundef %44)
  %46 = load ptr, ptr %5, align 8, !tbaa !46
  %47 = getelementptr inbounds nuw %struct.RTSPState, ptr %46, i32 0, i32 11
  %48 = load i32, ptr %47, align 4, !tbaa !114
  %49 = icmp eq i32 %48, 1
  br i1 %49, label %50, label %65

50:                                               ; preds = %40
  %51 = load ptr, ptr %9, align 8, !tbaa !15
  %52 = getelementptr inbounds nuw %struct.AVFormatContext, ptr %51, i32 0, i32 4
  %53 = load ptr, ptr %52, align 8, !tbaa !115
  %54 = icmp ne ptr %53, null
  br i1 %54, label %55, label %62

55:                                               ; preds = %50
  %56 = load i32, ptr %4, align 4, !tbaa !12
  %57 = icmp ne i32 %56, 0
  br i1 %57, label %58, label %62

58:                                               ; preds = %55
  %59 = load ptr, ptr %3, align 8, !tbaa !15
  %60 = load ptr, ptr %7, align 8, !tbaa !63
  %61 = call i32 @ff_rtsp_tcp_write_packet(ptr noundef %59, ptr noundef %60)
  br label %62

62:                                               ; preds = %58, %55, %50
  %63 = load ptr, ptr %9, align 8, !tbaa !15
  %64 = getelementptr inbounds nuw %struct.AVFormatContext, ptr %63, i32 0, i32 4
  call void @ffio_free_dyn_buf(ptr noundef %64)
  br label %69

65:                                               ; preds = %40
  %66 = load ptr, ptr %9, align 8, !tbaa !15
  %67 = getelementptr inbounds nuw %struct.AVFormatContext, ptr %66, i32 0, i32 4
  %68 = call i32 @avio_closep(ptr noundef %67)
  br label %69

69:                                               ; preds = %65, %62
  %70 = load ptr, ptr %9, align 8, !tbaa !15
  call void @avformat_free_context(ptr noundef %70)
  call void @llvm.lifetime.end.p0(i64 8, ptr %9) #13
  br label %91

71:                                               ; preds = %35
  %72 = load ptr, ptr %5, align 8, !tbaa !46
  %73 = getelementptr inbounds nuw %struct.RTSPState, ptr %72, i32 0, i32 10
  %74 = load i32, ptr %73, align 8, !tbaa !78
  %75 = icmp eq i32 %74, 1
  br i1 %75, label %76, label %80

76:                                               ; preds = %71
  %77 = load ptr, ptr %7, align 8, !tbaa !63
  %78 = getelementptr inbounds nuw %struct.RTSPStream, ptr %77, i32 0, i32 1
  %79 = load ptr, ptr %78, align 8, !tbaa !112
  call void @ff_rdt_parse_close(ptr noundef %79)
  br label %90

80:                                               ; preds = %71
  %81 = load ptr, ptr %5, align 8, !tbaa !46
  %82 = getelementptr inbounds nuw %struct.RTSPState, ptr %81, i32 0, i32 10
  %83 = load i32, ptr %82, align 8, !tbaa !78
  %84 = icmp eq i32 %83, 0
  br i1 %84, label %85, label %89

85:                                               ; preds = %80
  %86 = load ptr, ptr %7, align 8, !tbaa !63
  %87 = getelementptr inbounds nuw %struct.RTSPStream, ptr %86, i32 0, i32 1
  %88 = load ptr, ptr %87, align 8, !tbaa !112
  call void @ff_rtp_parse_close(ptr noundef %88)
  br label %89

89:                                               ; preds = %85, %80
  br label %90

90:                                               ; preds = %89, %76
  br label %91

91:                                               ; preds = %90, %69
  br label %92

92:                                               ; preds = %91, %30
  %93 = load ptr, ptr %7, align 8, !tbaa !63
  %94 = getelementptr inbounds nuw %struct.RTSPStream, ptr %93, i32 0, i32 1
  store ptr null, ptr %94, align 8, !tbaa !112
  %95 = load ptr, ptr %7, align 8, !tbaa !63
  %96 = getelementptr inbounds nuw %struct.RTSPStream, ptr %95, i32 0, i32 0
  %97 = call i32 @ffurl_closep(ptr noundef %96)
  store i32 0, ptr %8, align 4
  br label %98

98:                                               ; preds = %92, %29
  call void @llvm.lifetime.end.p0(i64 8, ptr %7) #13
  %99 = load i32, ptr %8, align 4
  switch i32 %99, label %105 [
    i32 0, label %100
    i32 4, label %101
  ]

100:                                              ; preds = %98
  br label %101

101:                                              ; preds = %100, %98
  %102 = load i32, ptr %6, align 4, !tbaa !12
  %103 = add nsw i32 %102, 1
  store i32 %103, ptr %6, align 4, !tbaa !12
  br label %13, !llvm.loop !116

104:                                              ; preds = %13
  call void @llvm.lifetime.end.p0(i64 4, ptr %6) #13
  call void @llvm.lifetime.end.p0(i64 8, ptr %5) #13
  ret void

105:                                              ; preds = %98
  unreachable
}