; Function Attrs: nounwind uwtable
define void @ff_rtsp_undo_setup(ptr noundef %0, i32 noundef %1) local_unnamed_addr #2 {
  %3 = getelementptr inbounds nuw i8, ptr %0, i64 24
  %4 = load ptr, ptr %3, align 8, !tbaa !20
  %5 = getelementptr inbounds nuw i8, ptr %4, i64 16
  %6 = load i32, ptr %5, align 8, !tbaa !56
  %7 = icmp sgt i32 %6, 0
  br i1 %7, label %.lr.ph, label %._crit_edge

.lr.ph:                                           ; preds = %2
  %8 = getelementptr inbounds nuw i8, ptr %4, i64 24
  %9 = getelementptr inbounds nuw i8, ptr %0, i64 16
  %10 = getelementptr inbounds nuw i8, ptr %4, i64 580
  %.not31 = icmp eq i32 %1, 0
  %11 = getelementptr inbounds nuw i8, ptr %4, i64 576
  br i1 %.not31, label %.lr.ph.split.us, label %.lr.ph.split

.lr.ph.split.us:                                  ; preds = %.lr.ph, %36
  %12 = phi i32 [ %37, %36 ], [ %6, %.lr.ph ]
  %indvars.iv35 = phi i64 [ %indvars.iv.next36, %36 ], [ 0, %.lr.ph ]
  %13 = load ptr, ptr %8, align 8, !tbaa !47
  %14 = getelementptr inbounds nuw ptr, ptr %13, i64 %indvars.iv35
  %15 = load ptr, ptr %14, align 8, !tbaa !57
  %.not.us = icmp eq ptr %15, null
  br i1 %.not.us, label %36, label %16

16:                                               ; preds = %.lr.ph.split.us
  %17 = getelementptr inbounds nuw i8, ptr %15, i64 8
  %18 = load ptr, ptr %17, align 8, !tbaa !133
  %.not28.us = icmp eq ptr %18, null
  br i1 %.not28.us, label %34, label %19

19:                                               ; preds = %16
  %20 = load ptr, ptr %9, align 8, !tbaa !134
  %.not29.us = icmp eq ptr %20, null
  br i1 %.not29.us, label %30, label %21

21:                                               ; preds = %19
  %22 = tail call i32 @av_write_trailer(ptr noundef nonnull %18) #15
  %23 = load i32, ptr %10, align 4, !tbaa !135
  %24 = icmp eq i32 %23, 1
  %25 = getelementptr inbounds nuw i8, ptr %18, i64 32
  br i1 %24, label %28, label %26

26:                                               ; preds = %21
  %27 = tail call i32 @avio_closep(ptr noundef nonnull %25) #15
  br label %29

28:                                               ; preds = %21
  tail call void @ffio_free_dyn_buf(ptr noundef nonnull %25) #15
  br label %29

29:                                               ; preds = %28, %26
  tail call void @avformat_free_context(ptr noundef nonnull %18) #15
  br label %34

30:                                               ; preds = %19
  %31 = load i32, ptr %11, align 8, !tbaa !75
  switch i32 %31, label %34 [
    i32 1, label %33
    i32 0, label %32
  ]

32:                                               ; preds = %30
  tail call void @ff_rtp_parse_close(ptr noundef nonnull %18) #15
  br label %34

33:                                               ; preds = %30
  tail call void @ff_rdt_parse_close(ptr noundef nonnull %18) #15
  br label %34

34:                                               ; preds = %33, %32, %30, %29, %16
  store ptr null, ptr %17, align 8, !tbaa !133
  %35 = tail call i32 @ffurl_closep(ptr noundef nonnull %15) #15
  %.pre38 = load i32, ptr %5, align 8, !tbaa !56
  br label %36

36:                                               ; preds = %34, %.lr.ph.split.us
  %37 = phi i32 [ %.pre38, %34 ], [ %12, %.lr.ph.split.us ]
  %indvars.iv.next36 = add nuw nsw i64 %indvars.iv35, 1
  %38 = sext i32 %37 to i64
  %39 = icmp slt i64 %indvars.iv.next36, %38
  br i1 %39, label %.lr.ph.split.us, label %._crit_edge, !llvm.loop !136

.lr.ph.split:                                     ; preds = %.lr.ph, %68
  %40 = phi i32 [ %69, %68 ], [ %6, %.lr.ph ]
  %indvars.iv = phi i64 [ %indvars.iv.next, %68 ], [ 0, %.lr.ph ]
  %41 = load ptr, ptr %8, align 8, !tbaa !47
  %42 = getelementptr inbounds nuw ptr, ptr %41, i64 %indvars.iv
  %43 = load ptr, ptr %42, align 8, !tbaa !57
  %.not = icmp eq ptr %43, null
  br i1 %.not, label %68, label %44

44:                                               ; preds = %.lr.ph.split
  %45 = getelementptr inbounds nuw i8, ptr %43, i64 8
  %46 = load ptr, ptr %45, align 8, !tbaa !133
  %.not28 = icmp eq ptr %46, null
  br i1 %.not28, label %66, label %47

47:                                               ; preds = %44
  %48 = load ptr, ptr %9, align 8, !tbaa !134
  %.not29 = icmp eq ptr %48, null
  br i1 %.not29, label %62, label %49

49:                                               ; preds = %47
  %50 = tail call i32 @av_write_trailer(ptr noundef nonnull %46) #15
  %51 = load i32, ptr %10, align 4, !tbaa !135
  %52 = icmp eq i32 %51, 1
  %53 = getelementptr inbounds nuw i8, ptr %46, i64 32
  br i1 %52, label %54, label %59

54:                                               ; preds = %49
  %55 = load ptr, ptr %53, align 8, !tbaa !137
  %.not32 = icmp eq ptr %55, null
  br i1 %.not32, label %58, label %56

56:                                               ; preds = %54
  %57 = tail call i32 @ff_rtsp_tcp_write_packet(ptr noundef nonnull %0, ptr noundef nonnull %43) #15
  br label %58

58:                                               ; preds = %56, %54
  tail call void @ffio_free_dyn_buf(ptr noundef nonnull %53) #15
  br label %61

59:                                               ; preds = %49
  %60 = tail call i32 @avio_closep(ptr noundef nonnull %53) #15
  br label %61

61:                                               ; preds = %59, %58
  tail call void @avformat_free_context(ptr noundef nonnull %46) #15
  br label %66

62:                                               ; preds = %47
  %63 = load i32, ptr %11, align 8, !tbaa !75
  switch i32 %63, label %66 [
    i32 1, label %64
    i32 0, label %65
  ]

64:                                               ; preds = %62
  tail call void @ff_rdt_parse_close(ptr noundef nonnull %46) #15
  br label %66

65:                                               ; preds = %62
  tail call void @ff_rtp_parse_close(ptr noundef nonnull %46) #15
  br label %66

66:                                               ; preds = %62, %61, %65, %64, %44
  store ptr null, ptr %45, align 8, !tbaa !133
  %67 = tail call i32 @ffurl_closep(ptr noundef nonnull %43) #15
  %.pre = load i32, ptr %5, align 8, !tbaa !56
  br label %68

68:                                               ; preds = %.lr.ph.split, %66
  %69 = phi i32 [ %40, %.lr.ph.split ], [ %.pre, %66 ]
  %indvars.iv.next = add nuw nsw i64 %indvars.iv, 1
  %70 = sext i32 %69 to i64
  %71 = icmp slt i64 %indvars.iv.next, %70
  br i1 %71, label %.lr.ph.split, label %._crit_edge, !llvm.loop !136

._crit_edge:                                      ; preds = %68, %36, %2
  ret void
}